target datalayout = "e-m:e-p270:32:32-p271:32:32-p272:64:64-i64:64-i128:128-f80:128-n8:16:32:64-S128"
target triple = "x86_64-pc-linux-gnu"

%"class.google::protobuf::internal::InternalMetadata" = type { i64 }
%"class.google::protobuf::internal::HasBits" = type { [1 x i32] }
%"class.google::protobuf::Message" = type { %"class.google::protobuf::MessageLite" }
%"class.google::protobuf::MessageLite" = type { ptr, %"class.google::protobuf::internal::InternalMetadata" }
%"struct.std::atomic" = type { %"struct.std::__atomic_base" }
%"struct.std::__atomic_base" = type { i32 }
%"class.google::protobuf::internal::CachedSize" = type { %"struct.std::atomic" }
%"class.google::protobuf::internal::LogMessage" = type { i32, ptr, i32, %"class.std::__cxx11::basic_string" }
%"class.std::__cxx11::basic_string" = type { %"struct.std::__cxx11::basic_string<char>::_Alloc_hider", i64, %union.anon.88 }
%"struct.std::__cxx11::basic_string<char>::_Alloc_hider" = type { ptr }
%union.anon.88 = type { i64, [8 x i8] }
%"class.google::protobuf::internal::LogFinisher" = type { i8 }
%"struct.google::protobuf::internal::InternalMetadata::ContainerBase" = type { ptr }
%"class.opencv_caffe::TileParameter" = type { %"class.google::protobuf::Message", %"class.google::protobuf::internal::HasBits", %"class.google::protobuf::internal::CachedSize", i32, i32 }
%"class.google::protobuf::Arena" = type { %"class.google::protobuf::internal::ThreadSafeArena" }
%"class.google::protobuf::internal::ThreadSafeArena" = type { i64, %"class.google::protobuf::internal::TaggedAllocationPolicyPtr", %"struct.std::atomic.100", %"struct.std::atomic.100" }
%"class.google::protobuf::internal::TaggedAllocationPolicyPtr" = type { i64 }
%"struct.std::atomic.100" = type { %"struct.std::__atomic_base.101" }
%"struct.std::__atomic_base.101" = type { ptr }

@_ZTVN6google8protobuf7MessageE = external unnamed_addr constant { [21 x ptr] }, align 8
@_ZTVN6google8protobuf11MessageLiteE = external unnamed_addr constant { [15 x ptr] }, align 8
@.str.123 = private unnamed_addr constant [145 x i8] c"generated/home/dtcxzyw/WorkSpace/Projects/compilers/llvm-opt-benchmark/bench/opencv/opencv/3rdparty/protobuf/src/google/protobuf/metadata_lite.h\00", align 1
@.str.124 = private unnamed_addr constant [54 x i8] c"CHECK failed: !is_message_owned || arena != nullptr: \00", align 1

; Function Attrs: alwaysinline mustprogress nounwind uwtable
define linkonce_odr hidden noundef zeroext i1 @_ZNK6google8protobuf8internal16InternalMetadata19HasUnknownFieldsTagEv(ptr noundef nonnull align 8 dereferenceable(8) %0) #13 comdat align 2 {
  %2 = alloca ptr, align 8
  store ptr %0, ptr %2, align 8, !tbaa !32
  %3 = load ptr, ptr %2, align 8
  %4 = getelementptr inbounds nuw %"class.google::protobuf::internal::InternalMetadata", ptr %3, i32 0, i32 0
  %5 = load i64, ptr %4, align 8, !tbaa !1438
  %6 = and i64 %5, 1
  %7 = icmp ne i64 %6, 0
  ret i1 %7
}

; Function Attrs: mustprogress nounwind uwtable
define linkonce_odr hidden noundef ptr @_ZNK6google8protobuf8internal16InternalMetadata8PtrValueINS0_5ArenaEEEPT_v(ptr noundef nonnull align 8 dereferenceable(8) %0) #5 comdat align 2 {
  %2 = alloca ptr, align 8
  store ptr %0, ptr %2, align 8, !tbaa !32
  %3 = load ptr, ptr %2, align 8
  %4 = getelementptr inbounds nuw %"class.google::protobuf::internal::InternalMetadata", ptr %3, i32 0, i32 0
  %5 = load i64, ptr %4, align 8, !tbaa !1438
  %6 = and i64 %5, -4
  %7 = inttoptr i64 %6 to ptr
  ret ptr %7
}

; Function Attrs: mustprogress nounwind uwtable
define linkonce_odr hidden noundef ptr @_ZNK6google8protobuf8internal16InternalMetadata8PtrValueINS2_13ContainerBaseEEEPT_v(ptr noundef nonnull align 8 dereferenceable(8) %0) #5 comdat align 2 {
  %2 = alloca ptr, align 8
  store ptr %0, ptr %2, align 8, !tbaa !32
  %3 = load ptr, ptr %2, align 8
  %4 = getelementptr inbounds nuw %"class.google::protobuf::internal::InternalMetadata", ptr %3, i32 0, i32 0
  %5 = load i64, ptr %4, align 8, !tbaa !1438
  %6 = and i64 %5, -4
  %7 = inttoptr i64 %6 to ptr
  ret ptr %7
}

; Function Attrs: alwaysinline mustprogress uwtable
define linkonce_odr hidden noundef zeroext i1 @_ZNK6google8protobuf8internal16InternalMetadata19have_unknown_fieldsEv(ptr noundef nonnull align 8 dereferenceable(8) %0) #8 comdat align 2 {
  %2 = alloca ptr, align 8
  store ptr %0, ptr %2, align 8, !tbaa !32
  %3 = load ptr, ptr %2, align 8
  %4 = call noundef zeroext i1 @_ZNK6google8protobuf8internal16InternalMetadata19HasUnknownFieldsTagEv(ptr noundef nonnull align 8 dereferenceable(8) %3)
  ret i1 %4
}

; Function Attrs: noinline noreturn nounwind uwtable
define linkonce_odr hidden void @__clang_call_terminate(ptr noundef %0) #9 comdat {
  %2 = call ptr @__cxa_begin_catch(ptr %0) #3
  call void @_ZSt9terminatev() #21
  unreachable
}

; Function Attrs: inlinehint mustprogress nounwind uwtable
define linkonce_odr hidden void @_ZN6google8protobuf5ArenaD2Ev(ptr noundef nonnull align 8 dereferenceable(32) %0) unnamed_addr #7 comdat align 2 {
  %2 = alloca ptr, align 8
  store ptr %0, ptr %2, align 8, !tbaa !12
  %3 = load ptr, ptr %2, align 8
  %4 = getelementptr inbounds nuw %"class.google::protobuf::Arena", ptr %3, i32 0, i32 0
  call void @_ZN6google8protobuf8internal15ThreadSafeArenaD1Ev(ptr noundef nonnull align 8 dereferenceable(32) %4) #3
  ret void
}

; Function Attrs: alwaysinline mustprogress uwtable
define linkonce_odr hidden noundef ptr @_ZNK6google8protobuf8internal16InternalMetadata5arenaEv(ptr noundef nonnull align 8 dereferenceable(8) %0) #8 comdat align 2 {
  %2 = alloca ptr, align 8
  %3 = alloca ptr, align 8
  store ptr %0, ptr %3, align 8, !tbaa !32
  %4 = load ptr, ptr %3, align 8
  %5 = call noundef zeroext i1 @_ZNK6google8protobuf8internal16InternalMetadata19have_unknown_fieldsEv(ptr noundef nonnull align 8 dereferenceable(8) %4)
  %6 = zext i1 %5 to i64
  %7 = call i64 @llvm.expect.i64(i64 %6, i64 0)
  %8 = icmp ne i64 %7, 0
  br i1 %8, label %9, label %13

9:                                                ; preds = %1
  %10 = call noundef ptr @_ZNK6google8protobuf8internal16InternalMetadata8PtrValueINS2_13ContainerBaseEEEPT_v(ptr noundef nonnull align 8 dereferenceable(8) %4)
  %11 = getelementptr inbounds nuw %"struct.google::protobuf::internal::InternalMetadata::ContainerBase", ptr %10, i32 0, i32 0
  %12 = load ptr, ptr %11, align 8, !tbaa !1443
  store ptr %12, ptr %2, align 8
  br label %15

13:                                               ; preds = %1
  %14 = call noundef ptr @_ZNK6google8protobuf8internal16InternalMetadata8PtrValueINS0_5ArenaEEEPT_v(ptr noundef nonnull align 8 dereferenceable(8) %4)
  store ptr %14, ptr %2, align 8
  br label %15

15:                                               ; preds = %13, %9
  %16 = load ptr, ptr %2, align 8
  ret ptr %16
}

; Function Attrs: alwaysinline mustprogress nounwind uwtable
define linkonce_odr hidden noundef zeroext i1 @_ZNK6google8protobuf8internal16InternalMetadata23HasMessageOwnedArenaTagEv(ptr noundef nonnull align 8 dereferenceable(8) %0) #13 comdat align 2 {
  %2 = alloca ptr, align 8
  store ptr %0, ptr %2, align 8, !tbaa !32
  %3 = load ptr, ptr %2, align 8
  %4 = getelementptr inbounds nuw %"class.google::protobuf::internal::InternalMetadata", ptr %3, i32 0, i32 0
  %5 = load i64, ptr %4, align 8, !tbaa !1438
  %6 = and i64 %5, 2
  %7 = icmp ne i64 %6, 0
  ret i1 %7
}

; Function Attrs: mustprogress nounwind uwtable
define linkonce_odr hidden void @_ZNSt13__atomic_baseIiEC2Ei(ptr noundef nonnull align 4 dereferenceable(4) %0, i32 noundef %1) unnamed_addr #5 comdat align 2 {
  %3 = alloca ptr, align 8
  %4 = alloca i32, align 4
  store ptr %0, ptr %3, align 8, !tbaa !65
  store i32 %1, ptr %4, align 4, !tbaa !8
  %5 = load ptr, ptr %3, align 8
  %6 = getelementptr inbounds nuw %"struct.std::__atomic_base", ptr %5, i32 0, i32 0
  %7 = load i32, ptr %4, align 4, !tbaa !8
  store i32 %7, ptr %6, align 4, !tbaa !1442
  ret void
}

; Function Attrs: mustprogress uwtable
define linkonce_odr hidden void @_ZN6google8protobuf8internal16InternalMetadataC2EPNS0_5ArenaEb(ptr noundef nonnull align 8 dereferenceable(8) %0, ptr noundef %1, i1 noundef zeroext %2) unnamed_addr #4 comdat align 2 personality ptr @__gxx_personality_v0 {
  %4 = alloca ptr, align 8
  %5 = alloca ptr, align 8
  %6 = alloca i8, align 1
  %7 = alloca %"class.google::protobuf::internal::LogMessage", align 8
  %8 = alloca i1, align 1
  %9 = alloca i1, align 1
  %10 = alloca ptr, align 8
  %11 = alloca i32, align 4
  %12 = alloca %"class.google::protobuf::internal::LogFinisher", align 1
  store ptr %0, ptr %4, align 8, !tbaa !32
  store ptr %1, ptr %5, align 8, !tbaa !12
  %13 = zext i1 %2 to i8
  store i8 %13, ptr %6, align 1, !tbaa !14
  %14 = load ptr, ptr %4, align 8
  %15 = getelementptr inbounds nuw %"class.google::protobuf::internal::InternalMetadata", ptr %14, i32 0, i32 0
  %16 = load i8, ptr %6, align 1, !tbaa !14, !range !16, !noundef !17
  %17 = trunc i8 %16 to i1
  br i1 %17, label %18, label %22

18:                                               ; preds = %3
  %19 = load ptr, ptr %5, align 8, !tbaa !12
  %20 = ptrtoint ptr %19 to i64
  %21 = or i64 %20, 2
  br label %25

22:                                               ; preds = %3
  %23 = load ptr, ptr %5, align 8, !tbaa !12
  %24 = ptrtoint ptr %23 to i64
  br label %25

25:                                               ; preds = %22, %18
  %26 = phi i64 [ %21, %18 ], [ %24, %22 ]
  store i64 %26, ptr %15, align 8, !tbaa !1438
  br label %27

27:                                               ; preds = %45, %25
  br i1 false, label %28, label %61

28:                                               ; preds = %27
  %29 = load i8, ptr %6, align 1, !tbaa !14, !range !16, !noundef !17
  %30 = trunc i8 %29 to i1
  store i1 false, ptr %8, align 1
  store i1 false, ptr %9, align 1
  call void @llvm.lifetime.start.p0(i64 1, ptr %12) #3
  br i1 %30, label %31, label %34

31:                                               ; preds = %28
  %32 = load ptr, ptr %5, align 8, !tbaa !12
  %33 = icmp ne ptr %32, null
  br i1 %33, label %34, label %35

34:                                               ; preds = %31, %28
  br label %39

35:                                               ; preds = %31
  call void @llvm.lifetime.start.p0(i64 56, ptr %7) #3
  store i1 true, ptr %8, align 1
  call void @_ZN6google8protobuf8internal10LogMessageC1ENS0_8LogLevelEPKci(ptr noundef nonnull align 8 dereferenceable(56) %7, i32 noundef 3, ptr noundef @.str.123, i32 noundef 69)
  store i1 true, ptr %9, align 1
  %36 = invoke noundef nonnull align 8 dereferenceable(56) ptr @_ZN6google8protobuf8internal10LogMessagelsEPKc(ptr noundef nonnull align 8 dereferenceable(56) %7, ptr noundef @.str.124)
          to label %37 unwind label %46

37:                                               ; preds = %35
  invoke void @_ZN6google8protobuf8internal11LogFinisheraSERNS1_10LogMessageE(ptr noundef nonnull align 1 dereferenceable(1) %12, ptr noundef nonnull align 8 dereferenceable(56) %36)
          to label %38 unwind label %50

38:                                               ; preds = %37
  br label %39

39:                                               ; preds = %38, %34
  call void @llvm.lifetime.end.p0(i64 1, ptr %12) #3
  %40 = load i1, ptr %9, align 1
  br i1 %40, label %41, label %42

41:                                               ; preds = %39
  call void @_ZN6google8protobuf8internal10LogMessageD1Ev(ptr noundef nonnull align 8 dereferenceable(56) %7) #3
  br label %42

42:                                               ; preds = %41, %39
  %43 = load i1, ptr %8, align 1
  br i1 %43, label %44, label %45

44:                                               ; preds = %42
  call void @llvm.lifetime.end.p0(i64 56, ptr %7) #3
  br label %45

45:                                               ; preds = %44, %42
  br label %27, !llvm.loop !1439

46:                                               ; preds = %35
  %47 = landingpad { ptr, i32 }
          cleanup
  %48 = extractvalue { ptr, i32 } %47, 0
  store ptr %48, ptr %10, align 8
  %49 = extractvalue { ptr, i32 } %47, 1
  store i32 %49, ptr %11, align 4
  br label %54

50:                                               ; preds = %37
  %51 = landingpad { ptr, i32 }
          cleanup
  %52 = extractvalue { ptr, i32 } %51, 0
  store ptr %52, ptr %10, align 8
  %53 = extractvalue { ptr, i32 } %51, 1
  store i32 %53, ptr %11, align 4
  call void @llvm.lifetime.end.p0(i64 1, ptr %12) #3
  br label %54

54:                                               ; preds = %50, %46
  %55 = load i1, ptr %9, align 1
  br i1 %55, label %56, label %57

56:                                               ; preds = %54
  call void @_ZN6google8protobuf8internal10LogMessageD1Ev(ptr noundef nonnull align 8 dereferenceable(56) %7) #3
  br label %57

57:                                               ; preds = %56, %54
  %58 = load i1, ptr %8, align 1
  br i1 %58, label %59, label %60

59:                                               ; preds = %57
  call void @llvm.lifetime.end.p0(i64 56, ptr %7) #3
  br label %60

60:                                               ; preds = %59, %57
  br label %62

61:                                               ; preds = %27
  ret void

62:                                               ; preds = %60
  %63 = load ptr, ptr %10, align 8
  %64 = load i32, ptr %11, align 4
  %65 = insertvalue { ptr, i32 } poison, ptr %63, 0
  %66 = insertvalue { ptr, i32 } %65, i32 %64, 1
  resume { ptr, i32 } %66
}

; Function Attrs: mustprogress nounwind uwtable
define linkonce_odr hidden void @_ZN6google8protobuf8internal16InternalMetadataD2Ev(ptr noundef nonnull align 8 dereferenceable(8) %0) unnamed_addr #5 comdat align 2 personality ptr @__gxx_personality_v0 {
  %2 = alloca ptr, align 8
  store ptr %0, ptr %2, align 8, !tbaa !32
  %3 = load ptr, ptr %2, align 8
  %4 = invoke noundef zeroext i1 @_ZNK6google8protobuf8internal16InternalMetadata23HasMessageOwnedArenaTagEv(ptr noundef nonnull align 8 dereferenceable(8) %3)
          to label %5 unwind label %13

5:                                                ; preds = %1
  br i1 %4, label %6, label %12

6:                                                ; preds = %5
  %7 = invoke noundef ptr @_ZNK6google8protobuf8internal16InternalMetadata5arenaEv(ptr noundef nonnull align 8 dereferenceable(8) %3)
          to label %8 unwind label %13

8:                                                ; preds = %6
  %9 = icmp eq ptr %7, null
  br i1 %9, label %11, label %10

10:                                               ; preds = %8
  call void @_ZN6google8protobuf5ArenaD2Ev(ptr noundef nonnull align 8 dereferenceable(32) %7) #3
  call void @_ZdlPv(ptr noundef %7) #22
  br label %11

11:                                               ; preds = %10, %8
  br label %12

12:                                               ; preds = %11, %5
  ret void

13:                                               ; preds = %6, %1
  %14 = landingpad { ptr, i32 }
          catch ptr null
  %15 = extractvalue { ptr, i32 } %14, 0
  call void @__clang_call_terminate(ptr %15) #21
  unreachable
}

; Function Attrs: mustprogress nounwind uwtable
define linkonce_odr hidden void @_ZNSt6atomicIiEC2Ei(ptr noundef nonnull align 4 dereferenceable(4) %0, i32 noundef %1) unnamed_addr #5 comdat align 2 {
  %3 = alloca ptr, align 8
  %4 = alloca i32, align 4
  store ptr %0, ptr %3, align 8, !tbaa !1440
  store i32 %1, ptr %4, align 4, !tbaa !8
  %5 = load ptr, ptr %3, align 8
  %6 = load i32, ptr %4, align 4, !tbaa !8
  call void @_ZNSt13__atomic_baseIiEC2Ei(ptr noundef nonnull align 4 dereferenceable(4) %5, i32 noundef %6) #3
  ret void
}

; Function Attrs: inlinehint mustprogress uwtable
define linkonce_odr hidden void @_ZN6google8protobuf11MessageLiteC2EPNS0_5ArenaEb(ptr noundef nonnull align 8 dereferenceable(16) %0, ptr noundef %1, i1 noundef zeroext %2) unnamed_addr #6 comdat align 2 {
  %4 = alloca ptr, align 8
  %5 = alloca ptr, align 8
  %6 = alloca i8, align 1
  store ptr %0, ptr %4, align 8, !tbaa !30
  store ptr %1, ptr %5, align 8, !tbaa !12
  %7 = zext i1 %2 to i8
  store i8 %7, ptr %6, align 1, !tbaa !14
  %8 = load ptr, ptr %4, align 8
  store ptr getelementptr inbounds inrange(-16, 104) ({ [15 x ptr] }, ptr @_ZTVN6google8protobuf11MessageLiteE, i32 0, i32 0, i32 2), ptr %8, align 8, !tbaa !18
  %9 = getelementptr inbounds nuw %"class.google::protobuf::MessageLite", ptr %8, i32 0, i32 1
  %10 = load ptr, ptr %5, align 8, !tbaa !12
  %11 = load i8, ptr %6, align 1, !tbaa !14, !range !16, !noundef !17
  %12 = trunc i8 %11 to i1
  call void @_ZN6google8protobuf8internal16InternalMetadataC2EPNS0_5ArenaEb(ptr noundef nonnull align 8 dereferenceable(8) %9, ptr noundef %10, i1 noundef zeroext %12)
  ret void
}

; Function Attrs: mustprogress nounwind uwtable
define linkonce_odr hidden void @_ZN6google8protobuf11MessageLiteD2Ev(ptr noundef nonnull align 8 dereferenceable(16) %0) unnamed_addr #5 comdat align 2 {
  %2 = alloca ptr, align 8
  store ptr %0, ptr %2, align 8, !tbaa !30
  %3 = load ptr, ptr %2, align 8
  store ptr getelementptr inbounds inrange(-16, 104) ({ [15 x ptr] }, ptr @_ZTVN6google8protobuf11MessageLiteE, i32 0, i32 0, i32 2), ptr %3, align 8, !tbaa !18
  %4 = getelementptr inbounds nuw %"class.google::protobuf::MessageLite", ptr %3, i32 0, i32 1
  call void @_ZN6google8protobuf8internal16InternalMetadataD2Ev(ptr noundef nonnull align 8 dereferenceable(8) %4) #3
  ret void
}

; Function Attrs: inlinehint mustprogress nounwind uwtable
define linkonce_odr hidden void @_ZN12opencv_caffe13TileParameter17RegisterArenaDtorEPN6google8protobuf5ArenaE(ptr noundef nonnull align 8 dereferenceable(32) %0, ptr noundef %1) #7 comdat align 2 {
  %3 = alloca ptr, align 8
  %4 = alloca ptr, align 8
  store ptr %0, ptr %3, align 8, !tbaa !844
  store ptr %1, ptr %4, align 8, !tbaa !12
  ret void
}

; Function Attrs: inlinehint mustprogress nounwind uwtable
define linkonce_odr hidden void @_ZN12opencv_caffe13TileParameter10SharedCtorEv(ptr noundef nonnull align 8 dereferenceable(32) %0) #7 comdat align 2 {
  %2 = alloca ptr, align 8
  store ptr %0, ptr %2, align 8, !tbaa !844
  %3 = load ptr, ptr %2, align 8
  %4 = getelementptr inbounds nuw %"class.opencv_caffe::TileParameter", ptr %3, i32 0, i32 3
  store i32 0, ptr %4, align 8, !tbaa !845
  %5 = getelementptr inbounds nuw %"class.opencv_caffe::TileParameter", ptr %3, i32 0, i32 4
  store i32 1, ptr %5, align 4, !tbaa !847
  ret void
}

; Function Attrs: inlinehint mustprogress nounwind uwtable
define linkonce_odr hidden void @_ZN6google8protobuf8internal10CachedSizeC2Ev(ptr noundef nonnull align 4 dereferenceable(4) %0) unnamed_addr #7 comdat align 2 {
  %2 = alloca ptr, align 8
  store ptr %0, ptr %2, align 8, !tbaa !28
  %3 = load ptr, ptr %2, align 8
  %4 = getelementptr inbounds nuw %"class.google::protobuf::internal::CachedSize", ptr %3, i32 0, i32 0
  call void @_ZNSt6atomicIiEC2Ei(ptr noundef nonnull align 4 dereferenceable(4) %4, i32 noundef 0) #3
  ret void
}

; Function Attrs: alwaysinline mustprogress nounwind uwtable
define linkonce_odr hidden void @_ZN6google8protobuf8internal7HasBitsILm1EEC2Ev(ptr noundef nonnull align 4 dereferenceable(4) %0) unnamed_addr #13 comdat align 2 {
  %2 = alloca ptr, align 8
  store ptr %0, ptr %2, align 8, !tbaa !87
  %3 = load ptr, ptr %2, align 8
  %4 = getelementptr inbounds nuw %"class.google::protobuf::internal::HasBits", ptr %3, i32 0, i32 0
  %5 = getelementptr inbounds i32, ptr %4, i64 1
  br label %6

6:                                                ; preds = %6, %1
  %7 = phi ptr [ %4, %1 ], [ %8, %6 ]
  store i32 0, ptr %7, align 4, !tbaa !8
  %8 = getelementptr inbounds i32, ptr %7, i64 1
  %9 = icmp eq ptr %8, %5
  br i1 %9, label %10, label %6

10:                                               ; preds = %6
  ret void
}

; Function Attrs: inlinehint mustprogress uwtable
define linkonce_odr hidden void @_ZN6google8protobuf7MessageC2EPNS0_5ArenaEb(ptr noundef nonnull align 8 dereferenceable(16) %0, ptr noundef %1, i1 noundef zeroext %2) unnamed_addr #6 comdat align 2 {
  %4 = alloca ptr, align 8
  %5 = alloca ptr, align 8
  %6 = alloca i8, align 1
  store ptr %0, ptr %4, align 8, !tbaa !20
  store ptr %1, ptr %5, align 8, !tbaa !12
  %7 = zext i1 %2 to i8
  store i8 %7, ptr %6, align 1, !tbaa !14
  %8 = load ptr, ptr %4, align 8
  %9 = load ptr, ptr %5, align 8, !tbaa !12
  %10 = load i8, ptr %6, align 1, !tbaa !14, !range !16, !noundef !17
  %11 = trunc i8 %10 to i1
  call void @_ZN6google8protobuf11MessageLiteC2EPNS0_5ArenaEb(ptr noundef nonnull align 8 dereferenceable(16) %8, ptr noundef %9, i1 noundef zeroext %11)
  store ptr getelementptr inbounds inrange(-16, 152) ({ [21 x ptr] }, ptr @_ZTVN6google8protobuf7MessageE, i32 0, i32 0, i32 2), ptr %8, align 8, !tbaa !18
  ret void
}

; Function Attrs: mustprogress uwtable
define hidden void @_ZN12opencv_caffe13TileParameterC2EPN6google8protobuf5ArenaEb(ptr noundef nonnull align 8 dereferenceable(32) %0, ptr noundef %1, i1 noundef zeroext %2) unnamed_addr #4 align 2 personality ptr @__gxx_personality_v0 {
  %4 = alloca ptr, align 8
  %5 = alloca ptr, align 8
  %6 = alloca i8, align 1
  %7 = alloca ptr, align 8
  %8 = alloca i32, align 4
  store ptr %0, ptr %4, align 8, !tbaa !844
  store ptr %1, ptr %5, align 8, !tbaa !12
  %9 = zext i1 %2 to i8
  store i8 %9, ptr %6, align 1, !tbaa !14
  %10 = load ptr, ptr %4, align 8
  %11 = load ptr, ptr %5, align 8, !tbaa !12
  %12 = load i8, ptr %6, align 1, !tbaa !14, !range !16, !noundef !17
  %13 = trunc i8 %12 to i1
  call void @_ZN6google8protobuf7MessageC2EPNS0_5ArenaEb(ptr noundef nonnull align 8 dereferenceable(16) %10, ptr noundef %11, i1 noundef zeroext %13)
  store ptr getelementptr inbounds inrange(-16, 152) ({ [21 x ptr] }, ptr @_ZTVN12opencv_caffe13TileParameterE, i32 0, i32 0, i32 2), ptr %10, align 8, !tbaa !18
  %14 = getelementptr inbounds nuw %"class.opencv_caffe::TileParameter", ptr %10, i32 0, i32 1
  invoke void @_ZN6google8protobuf8internal7HasBitsILm1EEC2Ev(ptr noundef nonnull align 4 dereferenceable(4) %14)
          to label %15 unwind label %23

15:                                               ; preds = %3
  %16 = getelementptr inbounds nuw %"class.opencv_caffe::TileParameter", ptr %10, i32 0, i32 2
  call void @_ZN6google8protobuf8internal10CachedSizeC2Ev(ptr noundef nonnull align 4 dereferenceable(4) %16) #3
  invoke void @_ZN12opencv_caffe13TileParameter10SharedCtorEv(ptr noundef nonnull align 8 dereferenceable(32) %10)
          to label %17 unwind label %23

17:                                               ; preds = %15
  %18 = load i8, ptr %6, align 1, !tbaa !14, !range !16, !noundef !17
  %19 = trunc i8 %18 to i1
  br i1 %19, label %27, label %20

20:                                               ; preds = %17
  %21 = load ptr, ptr %5, align 8, !tbaa !12
  invoke void @_ZN12opencv_caffe13TileParameter17RegisterArenaDtorEPN6google8protobuf5ArenaE(ptr noundef nonnull align 8 dereferenceable(32) %10, ptr noundef %21)
          to label %22 unwind label %23

22:                                               ; preds = %20
  br label %27

23:                                               ; preds = %20, %15, %3
  %24 = landingpad { ptr, i32 }
          cleanup
  %25 = extractvalue { ptr, i32 } %24, 0
  store ptr %25, ptr %7, align 8
  %26 = extractvalue { ptr, i32 } %24, 1
  store i32 %26, ptr %8, align 4
  call void @_ZN6google8protobuf11MessageLiteD2Ev(ptr noundef nonnull align 8 dereferenceable(16) %10) #3
  br label %28

27:                                               ; preds = %22, %17
  ret void

28:                                               ; preds = %23
  %29 = load ptr, ptr %7, align 8
  %30 = load i32, ptr %8, align 4
  %31 = insertvalue { ptr, i32 } poison, ptr %29, 0
  %32 = insertvalue { ptr, i32 } %31, i32 %30, 1
  resume { ptr, i32 } %32
}